target datalayout = "e-m:e-p270:32:32-p271:32:32-p272:64:64-i64:64-i128:128-f80:128-n8:16:32:64-S128"
target triple = "x86_64-pc-linux-gnu"

%struct.multi_pack_index = type { ptr, ptr, i64, ptr, ptr, i64, i32, i8, i8, i8, i32, i32, i32, i32, i32, ptr, i64, ptr, i64, ptr, ptr, ptr, ptr, i64, ptr, i64, ptr, i32, i32, ptr, ptr, ptr, [0 x i8] }

@.str.43 = private unnamed_addr constant [7 x i8] c"midx.c\00", align 1
@.str.61 = private unnamed_addr constant [38 x i8] c"NULL multi-pack-index for pack ID: %u\00", align 1
@.str.62 = private unnamed_addr constant [37 x i8] c"bad pack-int-id: %u (%u total packs)\00", align 1

; Function Attrs: nounwind uwtable
define internal i32 @midx_for_pack(ptr noundef %0, i32 noundef %1) #0 {
  %3 = alloca ptr, align 8
  %4 = alloca i32, align 4
  %5 = alloca ptr, align 8
  store ptr %0, ptr %3, align 8, !tbaa !61
  store i32 %1, ptr %4, align 4, !tbaa !40
  call void @llvm.lifetime.start.p0(i64 8, ptr %5) #13
  %6 = load ptr, ptr %3, align 8, !tbaa !61
  %7 = load ptr, ptr %6, align 8, !tbaa !4
  store ptr %7, ptr %5, align 8, !tbaa !4
  br label %8

8:                                                ; preds = %19, %2
  %9 = load ptr, ptr %5, align 8, !tbaa !4
  %10 = icmp ne ptr %9, null
  br i1 %10, label %11, label %17

11:                                               ; preds = %8
  %12 = load i32, ptr %4, align 4, !tbaa !40
  %13 = load ptr, ptr %5, align 8, !tbaa !4
  %14 = getelementptr inbounds nuw %struct.multi_pack_index, ptr %13, i32 0, i32 28
  %15 = load i32, ptr %14, align 4, !tbaa !40
  %16 = icmp ult i32 %12, %15
  br label %17

17:                                               ; preds = %11, %8
  %18 = phi i1 [ false, %8 ], [ %16, %11 ]
  br i1 %18, label %19, label %23

19:                                               ; preds = %17
  %20 = load ptr, ptr %5, align 8, !tbaa !4
  %21 = getelementptr inbounds nuw %struct.multi_pack_index, ptr %20, i32 0, i32 26
  %22 = load ptr, ptr %21, align 8, !tbaa !4
  store ptr %22, ptr %5, align 8, !tbaa !4
  br label %8, !llvm.loop !63

23:                                               ; preds = %17
  %24 = load ptr, ptr %5, align 8, !tbaa !4
  %25 = icmp ne ptr %24, null
  br i1 %25, label %28, label %26

26:                                               ; preds = %23
  %27 = load i32, ptr %4, align 4, !tbaa !40
  call void (ptr, i32, ptr, ...) @BUG_fl(ptr noundef @.str.43, i32 noundef 442, ptr noundef @.str.61, i32 noundef %27) #14
  unreachable

28:                                               ; preds = %23
  %29 = load i32, ptr %4, align 4, !tbaa !40
  %30 = load ptr, ptr %5, align 8, !tbaa !4
  %31 = getelementptr inbounds nuw %struct.multi_pack_index, ptr %30, i32 0, i32 10
  %32 = load i32, ptr %31, align 8, !tbaa !40
  %33 = load ptr, ptr %5, align 8, !tbaa !4
  %34 = getelementptr inbounds nuw %struct.multi_pack_index, ptr %33, i32 0, i32 28
  %35 = load i32, ptr %34, align 4, !tbaa !40
  %36 = add i32 %32, %35
  %37 = icmp uge i32 %29, %36
  br i1 %37, label %38, label %48

38:                                               ; preds = %28
  %39 = call ptr @_(ptr noundef @.str.62)
  %40 = load i32, ptr %4, align 4, !tbaa !40
  %41 = load ptr, ptr %5, align 8, !tbaa !4
  %42 = getelementptr inbounds nuw %struct.multi_pack_index, ptr %41, i32 0, i32 10
  %43 = load i32, ptr %42, align 8, !tbaa !40
  %44 = load ptr, ptr %5, align 8, !tbaa !4
  %45 = getelementptr inbounds nuw %struct.multi_pack_index, ptr %44, i32 0, i32 28
  %46 = load i32, ptr %45, align 4, !tbaa !40
  %47 = add i32 %43, %46
  call void (ptr, ...) @die(ptr noundef %39, i32 noundef %40, i32 noundef %47) #14
  unreachable

48:                                               ; preds = %28
  %49 = load ptr, ptr %5, align 8, !tbaa !4
  %50 = load ptr, ptr %3, align 8, !tbaa !61
  store ptr %49, ptr %50, align 8, !tbaa !4
  %51 = load i32, ptr %4, align 4, !tbaa !40
  %52 = load ptr, ptr %5, align 8, !tbaa !4
  %53 = getelementptr inbounds nuw %struct.multi_pack_index, ptr %52, i32 0, i32 28
  %54 = load i32, ptr %53, align 4, !tbaa !40
  %55 = sub i32 %51, %54
  call void @llvm.lifetime.end.p0(i64 8, ptr %5) #13
  ret i32 %55
}

; Function Attrs: nounwind uwtable
define dso_local ptr @nth_midxed_pack(ptr noundef %0, i32 noundef %1) #0 {
  %3 = alloca ptr, align 8
  %4 = alloca i32, align 4
  %5 = alloca i32, align 4
  store ptr %0, ptr %3, align 8, !tbaa !4
  store i32 %1, ptr %4, align 4, !tbaa !40
  call void @llvm.lifetime.start.p0(i64 4, ptr %5) #13
  %6 = load i32, ptr %4, align 4, !tbaa !40
  %7 = call i32 @midx_for_pack(ptr noundef %3, i32 noundef %6)
  store i32 %7, ptr %5, align 4, !tbaa !40
  %8 = load ptr, ptr %3, align 8, !tbaa !4
  %9 = getelementptr inbounds nuw %struct.multi_pack_index, ptr %8, i32 0, i32 30
  %10 = load ptr, ptr %9, align 8, !tbaa !52
  %11 = load i32, ptr %5, align 4, !tbaa !40
  %12 = zext i32 %11 to i64
  %13 = getelementptr inbounds nuw ptr, ptr %10, i64 %12
  %14 = load ptr, ptr %13, align 8, !tbaa !56
  call void @llvm.lifetime.end.p0(i64 4, ptr %5) #13
  ret ptr %14
}