; Function Attrs: nounwind uwtable
define dso_local ptr @nth_midxed_pack(ptr noundef readonly %0, i32 noundef %1) local_unnamed_addr #1 {
  %.not22.i = icmp eq ptr %0, null
  br i1 %.not22.i, label %.critedge18.i, label %.lr.ph.i

.lr.ph.i:                                         ; preds = %2, %6
  %.023.i = phi ptr [ %.0.i, %6 ], [ %0, %2 ]
  %3 = getelementptr inbounds nuw i8, ptr %.023.i, i64 180
  %4 = load i32, ptr %3, align 4, !tbaa !41
  %5 = icmp ult i32 %1, %4
  br i1 %5, label %6, label %.critedge.i

6:                                                ; preds = %.lr.ph.i
  %7 = getelementptr inbounds nuw i8, ptr %.023.i, i64 168
  %.0.i = load ptr, ptr %7, align 8, !tbaa !44
  %.not.i = icmp eq ptr %.0.i, null
  br i1 %.not.i, label %.critedge18.i, label %.lr.ph.i, !llvm.loop !56

.critedge18.i:                                    ; preds = %6, %2
  tail call void (ptr, i32, ptr, ...) @BUG_fl(ptr noundef nonnull @.str.43, i32 noundef 442, ptr noundef nonnull @.str.61, i32 noundef %1) #24
  unreachable

.critedge.i:                                      ; preds = %.lr.ph.i
  %8 = getelementptr inbounds nuw i8, ptr %.023.i, i64 56
  %9 = load i32, ptr %8, align 8, !tbaa !41
  %10 = add i32 %9, %4
  %.not17.i = icmp ult i32 %1, %10
  br i1 %.not17.i, label %midx_for_pack.exit, label %11

11:                                               ; preds = %.critedge.i
  %12 = getelementptr inbounds nuw i8, ptr %.023.i, i64 180
  %13 = tail call fastcc ptr @_(ptr noundef nonnull @.str.62)
  %14 = load i32, ptr %8, align 8, !tbaa !41
  %15 = load i32, ptr %12, align 4, !tbaa !41
  %16 = add i32 %15, %14
  tail call void (ptr, ...) @die(ptr noundef %13, i32 noundef %1, i32 noundef %16) #24
  unreachable

midx_for_pack.exit:                               ; preds = %.critedge.i
  %17 = sub i32 %1, %4
  %18 = getelementptr inbounds nuw i8, ptr %.023.i, i64 192
  %19 = load ptr, ptr %18, align 8, !tbaa !50
  %20 = zext i32 %17 to i64
  %21 = getelementptr inbounds nuw ptr, ptr %19, i64 %20
  %22 = load ptr, ptr %21, align 8, !tbaa !53
  ret ptr %22
}